; ModuleID = '39/683.c'
source_filename = "39/683.c"
target datalayout = "e-m:e-p270:32:32-p271:32:32-p272:64:64-i64:64-f80:128-n8:16:32:64-S128"
target triple = "x86_64-pc-linux-gnu"

%struct.stu = type { [21 x i8], i32, i32, i8, i8, i32, i32 }

@.str = private unnamed_addr constant [3 x i8] c"%d\00", align 1
@.str.1 = private unnamed_addr constant [18 x i8] c"%s %d %d %c %c %d\00", align 1
@stu = common dso_local global [101 x %struct.stu] zeroinitializer, align 16
@.str.2 = private unnamed_addr constant [9 x i8] c"%s\0A%d\0A%d\00", align 1

; Function Attrs: noinline nounwind uwtable
define dso_local i32 @main(i32 %0, i8** %1) #0 {
  %3 = alloca i32, align 4
  %4 = alloca i32, align 4
  %5 = alloca i8**, align 8
  %6 = alloca i32, align 4
  %7 = alloca i32, align 4
  %8 = alloca i32, align 4
  %9 = alloca i32, align 4
  %10 = alloca i32, align 4
  %11 = alloca i32, align 4
  %12 = alloca i32, align 4
  store i32 0, i32* %3, align 4
  store i32 %0, i32* %4, align 4
  store i8** %1, i8*** %5, align 8
  store i32 0, i32* %9, align 4
  store i32 0, i32* %11, align 4
  %13 = call i32 (i8*, ...) @__isoc99_scanf(i8* getelementptr inbounds ([3 x i8], [3 x i8]* @.str, i64 0, i64 0), i32* %6)
  store i32 1, i32* %7, align 4
  br label %14

14:                                               ; preds = %170, %2
  %15 = load i32, i32* %7, align 4
  %16 = load i32, i32* %6, align 4
  %17 = icmp sle i32 %15, %16
  br i1 %17, label %18, label %173

18:                                               ; preds = %14
  %19 = load i32, i32* %7, align 4
  %20 = sext i32 %19 to i64
  %21 = getelementptr inbounds [101 x %struct.stu], [101 x %struct.stu]* @stu, i64 0, i64 %20
  %22 = getelementptr inbounds %struct.stu, %struct.stu* %21, i32 0, i32 0
  %23 = load i32, i32* %7, align 4
  %24 = sext i32 %23 to i64
  %25 = getelementptr inbounds [101 x %struct.stu], [101 x %struct.stu]* @stu, i64 0, i64 %24
  %26 = getelementptr inbounds %struct.stu, %struct.stu* %25, i32 0, i32 1
  %27 = load i32, i32* %7, align 4
  %28 = sext i32 %27 to i64
  %29 = getelementptr inbounds [101 x %struct.stu], [101 x %struct.stu]* @stu, i64 0, i64 %28
  %30 = getelementptr inbounds %struct.stu, %struct.stu* %29, i32 0, i32 2
  %31 = load i32, i32* %7, align 4
  %32 = sext i32 %31 to i64
  %33 = getelementptr inbounds [101 x %struct.stu], [101 x %struct.stu]* @stu, i64 0, i64 %32
  %34 = getelementptr inbounds %struct.stu, %struct.stu* %33, i32 0, i32 3
  %35 = load i32, i32* %7, align 4
  %36 = sext i32 %35 to i64
  %37 = getelementptr inbounds [101 x %struct.stu], [101 x %struct.stu]* @stu, i64 0, i64 %36
  %38 = getelementptr inbounds %struct.stu, %struct.stu* %37, i32 0, i32 4
  %39 = load i32, i32* %7, align 4
  %40 = sext i32 %39 to i64
  %41 = getelementptr inbounds [101 x %struct.stu], [101 x %struct.stu]* @stu, i64 0, i64 %40
  %42 = getelementptr inbounds %struct.stu, %struct.stu* %41, i32 0, i32 5
  %43 = call i32 (i8*, ...) @__isoc99_scanf(i8* getelementptr inbounds ([18 x i8], [18 x i8]* @.str.1, i64 0, i64 0), [21 x i8]* %22, i32* %26, i32* %30, i8* %34, i8* %38, i32* %42)
  %44 = load i32, i32* %7, align 4
  %45 = sext i32 %44 to i64
  %46 = getelementptr inbounds [101 x %struct.stu], [101 x %struct.stu]* @stu, i64 0, i64 %45
  %47 = getelementptr inbounds %struct.stu, %struct.stu* %46, i32 0, i32 6
  store i32 0, i32* %47, align 4
  %48 = load i32, i32* %7, align 4
  %49 = sext i32 %48 to i64
  %50 = getelementptr inbounds [101 x %struct.stu], [101 x %struct.stu]* @stu, i64 0, i64 %49
  %51 = getelementptr inbounds %struct.stu, %struct.stu* %50, i32 0, i32 1
  %52 = load i32, i32* %51, align 4
  %53 = icmp sgt i32 %52, 80
  br i1 %53, label %54, label %68

54:                                               ; preds = %18
  %55 = load i32, i32* %7, align 4
  %56 = sext i32 %55 to i64
  %57 = getelementptr inbounds [101 x %struct.stu], [101 x %struct.stu]* @stu, i64 0, i64 %56
  %58 = getelementptr inbounds %struct.stu, %struct.stu* %57, i32 0, i32 5
  %59 = load i32, i32* %58, align 4
  %60 = icmp sge i32 %59, 1
  br i1 %60, label %61, label %68

61:                                               ; preds = %54
  %62 = load i32, i32* %7, align 4
  %63 = sext i32 %62 to i64
  %64 = getelementptr inbounds [101 x %struct.stu], [101 x %struct.stu]* @stu, i64 0, i64 %63
  %65 = getelementptr inbounds %struct.stu, %struct.stu* %64, i32 0, i32 6
  %66 = load i32, i32* %65, align 4
  %67 = add nsw i32 %66, 8000
  store i32 %67, i32* %65, align 4
  br label %68

68:                                               ; preds = %61, %54, %18
  %69 = load i32, i32* %7, align 4
  %70 = sext i32 %69 to i64
  %71 = getelementptr inbounds [101 x %struct.stu], [101 x %struct.stu]* @stu, i64 0, i64 %70
  %72 = getelementptr inbounds %struct.stu, %struct.stu* %71, i32 0, i32 1
  %73 = load i32, i32* %72, align 4
  %74 = icmp sgt i32 %73, 85
  br i1 %74, label %75, label %89

75:                                               ; preds = %68
  %76 = load i32, i32* %7, align 4
  %77 = sext i32 %76 to i64
  %78 = getelementptr inbounds [101 x %struct.stu], [101 x %struct.stu]* @stu, i64 0, i64 %77
  %79 = getelementptr inbounds %struct.stu, %struct.stu* %78, i32 0, i32 2
  %80 = load i32, i32* %79, align 4
  %81 = icmp sgt i32 %80, 80
  br i1 %81, label %82, label %89

82:                                               ; preds = %75
  %83 = load i32, i32* %7, align 4
  %84 = sext i32 %83 to i64
  %85 = getelementptr inbounds [101 x %struct.stu], [101 x %struct.stu]* @stu, i64 0, i64 %84
  %86 = getelementptr inbounds %struct.stu, %struct.stu* %85, i32 0, i32 6
  %87 = load i32, i32* %86, align 4
  %88 = add nsw i32 %87, 4000
  store i32 %88, i32* %86, align 4
  br label %89

89:                                               ; preds = %82, %75, %68
  %90 = load i32, i32* %7, align 4
  %91 = sext i32 %90 to i64
  %92 = getelementptr inbounds [101 x %struct.stu], [101 x %struct.stu]* @stu, i64 0, i64 %91
  %93 = getelementptr inbounds %struct.stu, %struct.stu* %92, i32 0, i32 1
  %94 = load i32, i32* %93, align 4
  %95 = icmp sgt i32 %94, 90
  br i1 %95, label %96, label %103

96:                                               ; preds = %89
  %97 = load i32, i32* %7, align 4
  %98 = sext i32 %97 to i64
  %99 = getelementptr inbounds [101 x %struct.stu], [101 x %struct.stu]* @stu, i64 0, i64 %98
  %100 = getelementptr inbounds %struct.stu, %struct.stu* %99, i32 0, i32 6
  %101 = load i32, i32* %100, align 4
  %102 = add nsw i32 %101, 2000
  store i32 %102, i32* %100, align 4
  br label %103

103:                                              ; preds = %96, %89
  %104 = load i32, i32* %7, align 4
  %105 = sext i32 %104 to i64
  %106 = getelementptr inbounds [101 x %struct.stu], [101 x %struct.stu]* @stu, i64 0, i64 %105
  %107 = getelementptr inbounds %struct.stu, %struct.stu* %106, i32 0, i32 1
  %108 = load i32, i32* %107, align 4
  %109 = icmp sgt i32 %108, 85
  br i1 %109, label %110, label %125

110:                                              ; preds = %103
  %111 = load i32, i32* %7, align 4
  %112 = sext i32 %111 to i64
  %113 = getelementptr inbounds [101 x %struct.stu], [101 x %struct.stu]* @stu, i64 0, i64 %112
  %114 = getelementptr inbounds %struct.stu, %struct.stu* %113, i32 0, i32 4
  %115 = load i8, i8* %114, align 1
  %116 = sext i8 %115 to i32
  %117 = icmp eq i32 %116, 89
  br i1 %117, label %118, label %125

118:                                              ; preds = %110
  %119 = load i32, i32* %7, align 4
  %120 = sext i32 %119 to i64
  %121 = getelementptr inbounds [101 x %struct.stu], [101 x %struct.stu]* @stu, i64 0, i64 %120
  %122 = getelementptr inbounds %struct.stu, %struct.stu* %121, i32 0, i32 6
  %123 = load i32, i32* %122, align 4
  %124 = add nsw i32 %123, 1000
  store i32 %124, i32* %122, align 4
  br label %125

125:                                              ; preds = %118, %110, %103
  %126 = load i32, i32* %7, align 4
  %127 = sext i32 %126 to i64
  %128 = getelementptr inbounds [101 x %struct.stu], [101 x %struct.stu]* @stu, i64 0, i64 %127
  %129 = getelementptr inbounds %struct.stu, %struct.stu* %128, i32 0, i32 2
  %130 = load i32, i32* %129, align 4
  %131 = icmp sgt i32 %130, 80
  br i1 %131, label %132, label %147

132:                                              ; preds = %125
  %133 = load i32, i32* %7, align 4
  %134 = sext i32 %133 to i64
  %135 = getelementptr inbounds [101 x %struct.stu], [101 x %struct.stu]* @stu, i64 0, i64 %134
  %136 = getelementptr inbounds %struct.stu, %struct.stu* %135, i32 0, i32 3
  %137 = load i8, i8* %136, align 4
  %138 = sext i8 %137 to i32
  %139 = icmp eq i32 %138, 89
  br i1 %139, label %140, label %147

140:                                              ; preds = %132
  %141 = load i32, i32* %7, align 4
  %142 = sext i32 %141 to i64
  %143 = getelementptr inbounds [101 x %struct.stu], [101 x %struct.stu]* @stu, i64 0, i64 %142
  %144 = getelementptr inbounds %struct.stu, %struct.stu* %143, i32 0, i32 6
  %145 = load i32, i32* %144, align 4
  %146 = add nsw i32 %145, 850
  store i32 %146, i32* %144, align 4
  br label %147

147:                                              ; preds = %140, %132, %125
  %148 = load i32, i32* %7, align 4
  %149 = sext i32 %148 to i64
  %150 = getelementptr inbounds [101 x %struct.stu], [101 x %struct.stu]* @stu, i64 0, i64 %149
  %151 = getelementptr inbounds %struct.stu, %struct.stu* %150, i32 0, i32 6
  %152 = load i32, i32* %151, align 4
  %153 = load i32, i32* %9, align 4
  %154 = add nsw i32 %153, %152
  store i32 %154, i32* %9, align 4
  %155 = load i32, i32* %7, align 4
  %156 = sext i32 %155 to i64
  %157 = getelementptr inbounds [101 x %struct.stu], [101 x %struct.stu]* @stu, i64 0, i64 %156
  %158 = getelementptr inbounds %struct.stu, %struct.stu* %157, i32 0, i32 6
  %159 = load i32, i32* %158, align 4
  %160 = load i32, i32* %11, align 4
  %161 = icmp sgt i32 %159, %160
  br i1 %161, label %162, label %169

162:                                              ; preds = %147
  %163 = load i32, i32* %7, align 4
  %164 = sext i32 %163 to i64
  %165 = getelementptr inbounds [101 x %struct.stu], [101 x %struct.stu]* @stu, i64 0, i64 %164
  %166 = getelementptr inbounds %struct.stu, %struct.stu* %165, i32 0, i32 6
  %167 = load i32, i32* %166, align 4
  store i32 %167, i32* %11, align 4
  %168 = load i32, i32* %7, align 4
  store i32 %168, i32* %12, align 4
  br label %169

169:                                              ; preds = %162, %147
  br label %170

170:                                              ; preds = %169
  %171 = load i32, i32* %7, align 4
  %172 = add nsw i32 %171, 1
  store i32 %172, i32* %7, align 4
  br label %14

173:                                              ; preds = %14
  %174 = load i32, i32* %12, align 4
  %175 = sext i32 %174 to i64
  %176 = getelementptr inbounds [101 x %struct.stu], [101 x %struct.stu]* @stu, i64 0, i64 %175
  %177 = getelementptr inbounds %struct.stu, %struct.stu* %176, i32 0, i32 0
  %178 = getelementptr inbounds [21 x i8], [21 x i8]* %177, i64 0, i64 0
  %179 = load i32, i32* %12, align 4
  %180 = sext i32 %179 to i64
  %181 = getelementptr inbounds [101 x %struct.stu], [101 x %struct.stu]* @stu, i64 0, i64 %180
  %182 = getelementptr inbounds %struct.stu, %struct.stu* %181, i32 0, i32 6
  %183 = load i32, i32* %182, align 4
  %184 = load i32, i32* %9, align 4
  %185 = call i32 (i8*, ...) @printf(i8* getelementptr inbounds ([9 x i8], [9 x i8]* @.str.2, i64 0, i64 0), i8* %178, i32 %183, i32 %184)
  ret i32 0
}

declare dso_local i32 @__isoc99_scanf(i8*, ...) #1

declare dso_local i32 @printf(i8*, ...) #1


!llvm.module.flags = !{!0}
!llvm.ident = !{!1}

!0 = !{i32 1, !"wchar_size", i32 4}
!1 = !{!"clang version 10.0.0-4ubuntu1 "}
